target datalayout = "e-m:e-p270:32:32-p271:32:32-p272:64:64-i64:64-i128:128-f80:128-n8:16:32:64-S128"
target triple = "x86_64-pc-linux-gnu"

%struct._dcerpc_info = type { ptr, i32, i64, i8, i8, i8, i32, i32, i32, i32, i32, i32, i32, i32, ptr, ptr, ptr, ptr, %struct.anon }
%struct.anon = type { i8, ptr, ptr, ptr, i8 }

@.str.376 = private unnamed_addr constant [9 x i8] c"afsFid: \00", align 1
@.str.377 = private unnamed_addr constant [8 x i8] c"MinVVp:\00", align 1

; Function Attrs: null_pointer_is_valid sspstrong uwtable
define internal i32 @fileexp_dissect_processquota_rqst(ptr noundef %0, i32 noundef %1, ptr noundef %2, ptr noundef %3, ptr noundef %4, ptr noundef %5) #0 {
  %7 = alloca i32, align 4
  %8 = alloca ptr, align 8
  %9 = alloca i32, align 4
  %10 = alloca ptr, align 8
  %11 = alloca ptr, align 8
  %12 = alloca ptr, align 8
  %13 = alloca ptr, align 8
  store ptr %0, ptr %8, align 8
  store i32 %1, ptr %9, align 4
  store ptr %2, ptr %10, align 8
  store ptr %3, ptr %11, align 8
  store ptr %4, ptr %12, align 8
  store ptr %5, ptr %13, align 8
  %14 = load ptr, ptr %12, align 8
  %15 = getelementptr inbounds nuw %struct._dcerpc_info, ptr %14, i32 0, i32 4
  %16 = load i8, ptr %15, align 1, !range !6, !noundef !7
  %17 = trunc i8 %16 to i1
  br i1 %17, label %18, label %20

18:                                               ; preds = %6
  %19 = load i32, ptr %9, align 4
  store i32 %19, ptr %7, align 4
  br label %43

20:                                               ; preds = %6
  %21 = load ptr, ptr %8, align 8
  %22 = load i32, ptr %9, align 4
  %23 = load ptr, ptr %10, align 8
  %24 = load ptr, ptr %11, align 8
  %25 = load ptr, ptr %12, align 8
  %26 = load ptr, ptr %13, align 8
  %27 = call i32 @dissect_ndr_pointer(ptr noundef %21, i32 noundef %22, ptr noundef %23, ptr noundef %24, ptr noundef %25, ptr noundef %26, ptr noundef @dissect_afsFid, i32 noundef 1, ptr noundef @.str.376, i32 noundef -1)
  store i32 %27, ptr %9, align 4
  %28 = load ptr, ptr %8, align 8
  %29 = load i32, ptr %9, align 4
  %30 = load ptr, ptr %10, align 8
  %31 = load ptr, ptr %11, align 8
  %32 = load ptr, ptr %12, align 8
  %33 = load ptr, ptr %13, align 8
  %34 = call i32 @dissect_ndr_pointer(ptr noundef %28, i32 noundef %29, ptr noundef %30, ptr noundef %31, ptr noundef %32, ptr noundef %33, ptr noundef @dissect_minvvp, i32 noundef 1, ptr noundef @.str.377, i32 noundef -1)
  store i32 %34, ptr %9, align 4
  %35 = load ptr, ptr %8, align 8
  %36 = load i32, ptr %9, align 4
  %37 = load ptr, ptr %10, align 8
  %38 = load ptr, ptr %11, align 8
  %39 = load ptr, ptr %12, align 8
  %40 = load ptr, ptr %13, align 8
  %41 = call i32 @dissect_afsFlags(ptr noundef %35, i32 noundef %36, ptr noundef %37, ptr noundef %38, ptr noundef %39, ptr noundef %40)
  store i32 %41, ptr %9, align 4
  %42 = load i32, ptr %9, align 4
  store i32 %42, ptr %7, align 4
  br label %43

43:                                               ; preds = %20, %18
  %44 = load i32, ptr %7, align 4
  ret i32 %44
}